; Function Attrs: mustprogress nounwind uwtable
define internal void @_ZN12_GLOBAL__N_115RISCVAsmPrinterD0Ev(ptr noundef nonnull align 8 dereferenceable(848) initializes((0, 8)) %0) unnamed_addr #0 align 2 {
  store ptr getelementptr inbounds nuw inrange(-16, 520) (i8, ptr @_ZTVN12_GLOBAL__N_115RISCVAsmPrinterE, i64 16), ptr %0, align 8
  %2 = getelementptr inbounds nuw i8, ptr %0, i64 800
  %3 = getelementptr inbounds nuw i8, ptr %0, i64 816
  %4 = load ptr, ptr %3, align 8
  tail call void @_ZNSt8_Rb_treeISt5tupleIJjjEESt4pairIKS1_PN4llvm8MCSymbolEESt10_Select1stIS7_ESt4lessIS1_ESaIS7_EE8_M_eraseEPSt13_Rb_tree_nodeIS7_E(ptr noundef nonnull align 8 dereferenceable(48) %2, ptr noundef %4)
  tail call void @_ZN4llvm10AsmPrinterD2Ev(ptr noundef nonnull align 8 dereferenceable(848) %0) #16
  tail call void @_ZdlPvm(ptr noundef nonnull %0, i64 noundef 848) #18
  ret void
}